target datalayout = "e-m:e-p270:32:32-p271:32:32-p272:64:64-i64:64-i128:128-f80:128-n8:16:32:64-S128"
target triple = "x86_64-pc-linux-gnu"

%struct.MultiAssignRef = type { i32, ptr, i32, i32 }

; Function Attrs: nounwind uwtable
define internal zeroext i1 @_equalMultiAssignRef(ptr noundef %0, ptr noundef %1) #0 {
  %3 = alloca i1, align 1
  %4 = alloca ptr, align 8
  %5 = alloca ptr, align 8
  store ptr %0, ptr %4, align 8
  store ptr %1, ptr %5, align 8
  br label %6

6:                                                ; preds = %2
  %7 = load ptr, ptr %4, align 8
  %8 = getelementptr inbounds nuw %struct.MultiAssignRef, ptr %7, i32 0, i32 1
  %9 = load ptr, ptr %8, align 8
  %10 = load ptr, ptr %5, align 8
  %11 = getelementptr inbounds nuw %struct.MultiAssignRef, ptr %10, i32 0, i32 1
  %12 = load ptr, ptr %11, align 8
  %13 = call zeroext i1 @equal(ptr noundef %9, ptr noundef %12)
  br i1 %13, label %15, label %14

14:                                               ; preds = %6
  store i1 false, ptr %3, align 1
  br label %39

15:                                               ; preds = %6
  br label %16

16:                                               ; preds = %15
  br label %17

17:                                               ; preds = %16
  %18 = load ptr, ptr %4, align 8
  %19 = getelementptr inbounds nuw %struct.MultiAssignRef, ptr %18, i32 0, i32 2
  %20 = load i32, ptr %19, align 8
  %21 = load ptr, ptr %5, align 8
  %22 = getelementptr inbounds nuw %struct.MultiAssignRef, ptr %21, i32 0, i32 2
  %23 = load i32, ptr %22, align 8
  %24 = icmp ne i32 %20, %23
  br i1 %24, label %25, label %26

25:                                               ; preds = %17
  store i1 false, ptr %3, align 1
  br label %39

26:                                               ; preds = %17
  br label %27

27:                                               ; preds = %26
  br label %28

28:                                               ; preds = %27
  %29 = load ptr, ptr %4, align 8
  %30 = getelementptr inbounds nuw %struct.MultiAssignRef, ptr %29, i32 0, i32 3
  %31 = load i32, ptr %30, align 4
  %32 = load ptr, ptr %5, align 8
  %33 = getelementptr inbounds nuw %struct.MultiAssignRef, ptr %32, i32 0, i32 3
  %34 = load i32, ptr %33, align 4
  %35 = icmp ne i32 %31, %34
  br i1 %35, label %36, label %37

36:                                               ; preds = %28
  store i1 false, ptr %3, align 1
  br label %39

37:                                               ; preds = %28
  br label %38

38:                                               ; preds = %37
  store i1 true, ptr %3, align 1
  br label %39

39:                                               ; preds = %38, %36, %25, %14
  %40 = load i1, ptr %3, align 1
  ret i1 %40
}